target datalayout = "e-m:e-p270:32:32-p271:32:32-p272:64:64-i64:64-i128:128-f80:128-n8:16:32:64-S128"
target triple = "x86_64-unknown-linux-gnu"

%"class.v8::IndirectHandleBase" = type { ptr }
%"class.node::crypto::DiffieHellman" = type { %"class.node::BaseObject", i32, %"class.std::unique_ptr" }
%"class.node::BaseObject" = type { %"class.node::MemoryRetainer", %"class.v8::Global", ptr, ptr }
%"class.node::MemoryRetainer" = type { ptr }
%"class.v8::Global" = type { %"class.v8::PersistentBase" }
%"class.v8::PersistentBase" = type { %"class.v8::IndirectHandleBase" }
%"class.std::unique_ptr" = type { %"struct.std::__uniq_ptr_data" }
%"struct.std::__uniq_ptr_data" = type { %"class.std::__uniq_ptr_impl" }
%"class.std::__uniq_ptr_impl" = type { %"class.std::tuple" }
%"class.std::tuple" = type { %"struct.std::_Tuple_impl" }
%"struct.std::_Tuple_impl" = type { %"struct.std::_Head_base.1" }
%"struct.std::_Head_base.1" = type { ptr }

@.str.7 = private unnamed_addr constant [30 x i8] c"../../src/crypto/crypto_dh.cc\00", align 1
@.str.8 = private unnamed_addr constant [19 x i8] c"(unknown function)\00", align 1

; Function Attrs: mustprogress nounwind uwtable
define linkonce_odr dso_local noundef nonnull align 1 dereferenceable(1) ptr @_ZNSt10_Head_baseILm1EN4node15FunctionDeleterI5dh_stXadL_Z7DH_freeEEEELb1EE7_M_headERS4_(ptr noundef nonnull align 1 dereferenceable(1) %__b) #4 comdat align 2 {
entry:
  %__b.addr = alloca ptr, align 8
  store ptr %__b, ptr %__b.addr, align 8
  %0 = load ptr, ptr %__b.addr, align 8
  ret ptr %0
}

; Function Attrs: mustprogress nounwind uwtable
define linkonce_odr dso_local noundef nonnull align 8 dereferenceable(8) ptr @_ZNSt10_Head_baseILm0EP5dh_stLb0EE7_M_headERS2_(ptr noundef nonnull align 8 dereferenceable(8) %__b) #4 comdat align 2 {
entry:
  %__b.addr = alloca ptr, align 8
  store ptr %__b, ptr %__b.addr, align 8
  %0 = load ptr, ptr %__b.addr, align 8
  %_M_head_impl = getelementptr inbounds %"struct.std::_Head_base.1", ptr %0, i32 0, i32 0
  ret ptr %_M_head_impl
}

; Function Attrs: mustprogress nounwind uwtable
define linkonce_odr dso_local noundef nonnull align 8 dereferenceable(8) ptr @_ZNSt10_Head_baseILm0EP5dh_stLb0EE7_M_headERKS2_(ptr noundef nonnull align 8 dereferenceable(8) %__b) #4 comdat align 2 {
entry:
  %__b.addr = alloca ptr, align 8
  store ptr %__b, ptr %__b.addr, align 8
  %0 = load ptr, ptr %__b.addr, align 8
  %_M_head_impl = getelementptr inbounds %"struct.std::_Head_base.1", ptr %0, i32 0, i32 0
  ret ptr %_M_head_impl
}

; Function Attrs: mustprogress nounwind uwtable
define linkonce_odr dso_local noundef nonnull align 1 dereferenceable(1) ptr @_ZNSt11_Tuple_implILm1EJN4node15FunctionDeleterI5dh_stXadL_Z7DH_freeEEEEEE7_M_headERS4_(ptr noundef nonnull align 1 dereferenceable(1) %__t) #4 comdat align 2 {
entry:
  %__t.addr = alloca ptr, align 8
  store ptr %__t, ptr %__t.addr, align 8
  %0 = load ptr, ptr %__t.addr, align 8
  %call = call noundef nonnull align 1 dereferenceable(1) ptr @_ZNSt10_Head_baseILm1EN4node15FunctionDeleterI5dh_stXadL_Z7DH_freeEEEELb1EE7_M_headERS4_(ptr noundef nonnull align 1 dereferenceable(1) %0) #3
  ret ptr %call
}

; Function Attrs: mustprogress nounwind uwtable
define linkonce_odr dso_local noundef nonnull align 8 dereferenceable(8) ptr @_ZNSt11_Tuple_implILm0EJP5dh_stN4node15FunctionDeleterIS0_XadL_Z7DH_freeEEEEEE7_M_headERS5_(ptr noundef nonnull align 8 dereferenceable(8) %__t) #4 comdat align 2 {
entry:
  %__t.addr = alloca ptr, align 8
  store ptr %__t, ptr %__t.addr, align 8
  %0 = load ptr, ptr %__t.addr, align 8
  %call = call noundef nonnull align 8 dereferenceable(8) ptr @_ZNSt10_Head_baseILm0EP5dh_stLb0EE7_M_headERS2_(ptr noundef nonnull align 8 dereferenceable(8) %0) #3
  ret ptr %call
}

; Function Attrs: mustprogress nounwind uwtable
define linkonce_odr dso_local noundef nonnull align 8 dereferenceable(8) ptr @_ZNSt11_Tuple_implILm0EJP5dh_stN4node15FunctionDeleterIS0_XadL_Z7DH_freeEEEEEE7_M_headERKS5_(ptr noundef nonnull align 8 dereferenceable(8) %__t) #4 comdat align 2 {
entry:
  %__t.addr = alloca ptr, align 8
  store ptr %__t, ptr %__t.addr, align 8
  %0 = load ptr, ptr %__t.addr, align 8
  %call = call noundef nonnull align 8 dereferenceable(8) ptr @_ZNSt10_Head_baseILm0EP5dh_stLb0EE7_M_headERKS2_(ptr noundef nonnull align 8 dereferenceable(8) %0) #3
  ret ptr %call
}

; Function Attrs: mustprogress nounwind uwtable
define linkonce_odr dso_local noundef nonnull align 1 dereferenceable(1) ptr @_ZSt12__get_helperILm1EN4node15FunctionDeleterI5dh_stXadL_Z7DH_freeEEEEJEERT0_RSt11_Tuple_implIXT_EJS4_DpT1_EE(ptr noundef nonnull align 1 dereferenceable(1) %__t) #4 comdat {
entry:
  %__t.addr = alloca ptr, align 8
  store ptr %__t, ptr %__t.addr, align 8
  %0 = load ptr, ptr %__t.addr, align 8
  %call = call noundef nonnull align 1 dereferenceable(1) ptr @_ZNSt11_Tuple_implILm1EJN4node15FunctionDeleterI5dh_stXadL_Z7DH_freeEEEEEE7_M_headERS4_(ptr noundef nonnull align 1 dereferenceable(1) %0) #3
  ret ptr %call
}

; Function Attrs: mustprogress nounwind uwtable
define linkonce_odr dso_local noundef nonnull align 8 dereferenceable(8) ptr @_ZSt12__get_helperILm0EP5dh_stJN4node15FunctionDeleterIS0_XadL_Z7DH_freeEEEEEERT0_RSt11_Tuple_implIXT_EJS5_DpT1_EE(ptr noundef nonnull align 8 dereferenceable(8) %__t) #4 comdat {
entry:
  %__t.addr = alloca ptr, align 8
  store ptr %__t, ptr %__t.addr, align 8
  %0 = load ptr, ptr %__t.addr, align 8
  %call = call noundef nonnull align 8 dereferenceable(8) ptr @_ZNSt11_Tuple_implILm0EJP5dh_stN4node15FunctionDeleterIS0_XadL_Z7DH_freeEEEEEE7_M_headERS5_(ptr noundef nonnull align 8 dereferenceable(8) %0) #3
  ret ptr %call
}

; Function Attrs: mustprogress nounwind uwtable
define linkonce_odr dso_local noundef nonnull align 8 dereferenceable(8) ptr @_ZSt12__get_helperILm0EP5dh_stJN4node15FunctionDeleterIS0_XadL_Z7DH_freeEEEEEERKT0_RKSt11_Tuple_implIXT_EJS5_DpT1_EE(ptr noundef nonnull align 8 dereferenceable(8) %__t) #4 comdat {
entry:
  %__t.addr = alloca ptr, align 8
  store ptr %__t, ptr %__t.addr, align 8
  %0 = load ptr, ptr %__t.addr, align 8
  %call = call noundef nonnull align 8 dereferenceable(8) ptr @_ZNSt11_Tuple_implILm0EJP5dh_stN4node15FunctionDeleterIS0_XadL_Z7DH_freeEEEEEE7_M_headERKS5_(ptr noundef nonnull align 8 dereferenceable(8) %0) #3
  ret ptr %call
}

; Function Attrs: mustprogress nounwind uwtable
define linkonce_odr dso_local noundef nonnull align 1 dereferenceable(1) ptr @_ZSt3getILm1EJP5dh_stN4node15FunctionDeleterIS0_XadL_Z7DH_freeEEEEEERNSt13tuple_elementIXT_ESt5tupleIJDpT0_EEE4typeERS9_(ptr noundef nonnull align 8 dereferenceable(8) %__t) #4 comdat {
entry:
  %__t.addr = alloca ptr, align 8
  store ptr %__t, ptr %__t.addr, align 8
  %0 = load ptr, ptr %__t.addr, align 8
  %call = call noundef nonnull align 1 dereferenceable(1) ptr @_ZSt12__get_helperILm1EN4node15FunctionDeleterI5dh_stXadL_Z7DH_freeEEEEJEERT0_RSt11_Tuple_implIXT_EJS4_DpT1_EE(ptr noundef nonnull align 1 dereferenceable(1) %0) #3
  ret ptr %call
}

; Function Attrs: mustprogress nounwind uwtable
define linkonce_odr dso_local noundef nonnull align 8 dereferenceable(8) ptr @_ZSt3getILm0EJP5dh_stN4node15FunctionDeleterIS0_XadL_Z7DH_freeEEEEEERNSt13tuple_elementIXT_ESt5tupleIJDpT0_EEE4typeERS9_(ptr noundef nonnull align 8 dereferenceable(8) %__t) #4 comdat {
entry:
  %__t.addr = alloca ptr, align 8
  store ptr %__t, ptr %__t.addr, align 8
  %0 = load ptr, ptr %__t.addr, align 8
  %call = call noundef nonnull align 8 dereferenceable(8) ptr @_ZSt12__get_helperILm0EP5dh_stJN4node15FunctionDeleterIS0_XadL_Z7DH_freeEEEEEERT0_RSt11_Tuple_implIXT_EJS5_DpT1_EE(ptr noundef nonnull align 8 dereferenceable(8) %0) #3
  ret ptr %call
}

; Function Attrs: mustprogress nounwind uwtable
define linkonce_odr dso_local noundef nonnull align 8 dereferenceable(8) ptr @_ZSt3getILm0EJP5dh_stN4node15FunctionDeleterIS0_XadL_Z7DH_freeEEEEEERKNSt13tuple_elementIXT_ESt5tupleIJDpT0_EEE4typeERKS9_(ptr noundef nonnull align 8 dereferenceable(8) %__t) #4 comdat {
entry:
  %__t.addr = alloca ptr, align 8
  store ptr %__t, ptr %__t.addr, align 8
  %0 = load ptr, ptr %__t.addr, align 8
  %call = call noundef nonnull align 8 dereferenceable(8) ptr @_ZSt12__get_helperILm0EP5dh_stJN4node15FunctionDeleterIS0_XadL_Z7DH_freeEEEEEERKT0_RKSt11_Tuple_implIXT_EJS5_DpT1_EE(ptr noundef nonnull align 8 dereferenceable(8) %0) #3
  ret ptr %call
}

; Function Attrs: mustprogress nounwind uwtable
define linkonce_odr dso_local void @_ZNK4node15FunctionDeleterI5dh_stXadL_Z7DH_freeEEEclEPS1_(ptr noundef nonnull align 1 dereferenceable(1) %this, ptr noundef %pointer) #4 comdat align 2 {
entry:
  %this.addr = alloca ptr, align 8
  %pointer.addr = alloca ptr, align 8
  store ptr %this, ptr %this.addr, align 8
  store ptr %pointer, ptr %pointer.addr, align 8
  %0 = load ptr, ptr %pointer.addr, align 8
  call void @DH_free(ptr noundef %0)
  ret void
}

; Function Attrs: mustprogress nounwind uwtable
define linkonce_odr dso_local noundef nonnull align 1 dereferenceable(1) ptr @_ZNSt15__uniq_ptr_implI5dh_stN4node15FunctionDeleterIS0_XadL_Z7DH_freeEEEEE10_M_deleterEv(ptr noundef nonnull align 8 dereferenceable(8) %this) #4 comdat align 2 {
entry:
  %this.addr = alloca ptr, align 8
  store ptr %this, ptr %this.addr, align 8
  %this1 = load ptr, ptr %this.addr, align 8
  %_M_t = getelementptr inbounds %"class.std::__uniq_ptr_impl", ptr %this1, i32 0, i32 0
  %call = call noundef nonnull align 1 dereferenceable(1) ptr @_ZSt3getILm1EJP5dh_stN4node15FunctionDeleterIS0_XadL_Z7DH_freeEEEEEERNSt13tuple_elementIXT_ESt5tupleIJDpT0_EEE4typeERS9_(ptr noundef nonnull align 8 dereferenceable(8) %_M_t) #3
  ret ptr %call
}

; Function Attrs: mustprogress nounwind uwtable
define linkonce_odr dso_local noundef nonnull align 8 dereferenceable(8) ptr @_ZNSt15__uniq_ptr_implI5dh_stN4node15FunctionDeleterIS0_XadL_Z7DH_freeEEEEE6_M_ptrEv(ptr noundef nonnull align 8 dereferenceable(8) %this) #4 comdat align 2 {
entry:
  %this.addr = alloca ptr, align 8
  store ptr %this, ptr %this.addr, align 8
  %this1 = load ptr, ptr %this.addr, align 8
  %_M_t = getelementptr inbounds %"class.std::__uniq_ptr_impl", ptr %this1, i32 0, i32 0
  %call = call noundef nonnull align 8 dereferenceable(8) ptr @_ZSt3getILm0EJP5dh_stN4node15FunctionDeleterIS0_XadL_Z7DH_freeEEEEEERNSt13tuple_elementIXT_ESt5tupleIJDpT0_EEE4typeERS9_(ptr noundef nonnull align 8 dereferenceable(8) %_M_t) #3
  ret ptr %call
}

; Function Attrs: mustprogress nounwind uwtable
define linkonce_odr dso_local noundef ptr @_ZNKSt15__uniq_ptr_implI5dh_stN4node15FunctionDeleterIS0_XadL_Z7DH_freeEEEEE6_M_ptrEv(ptr noundef nonnull align 8 dereferenceable(8) %this) #4 comdat align 2 {
entry:
  %this.addr = alloca ptr, align 8
  store ptr %this, ptr %this.addr, align 8
  %this1 = load ptr, ptr %this.addr, align 8
  %_M_t = getelementptr inbounds %"class.std::__uniq_ptr_impl", ptr %this1, i32 0, i32 0
  %call = call noundef nonnull align 8 dereferenceable(8) ptr @_ZSt3getILm0EJP5dh_stN4node15FunctionDeleterIS0_XadL_Z7DH_freeEEEEEERKNSt13tuple_elementIXT_ESt5tupleIJDpT0_EEE4typeERKS9_(ptr noundef nonnull align 8 dereferenceable(8) %_M_t) #3
  %0 = load ptr, ptr %call, align 8
  ret ptr %0
}

; Function Attrs: mustprogress nounwind uwtable
define linkonce_odr dso_local void @_ZNSt15__uniq_ptr_implI5dh_stN4node15FunctionDeleterIS0_XadL_Z7DH_freeEEEEE5resetEPS0_(ptr noundef nonnull align 8 dereferenceable(8) %this, ptr noundef %__p) #4 comdat align 2 {
entry:
  %this.addr = alloca ptr, align 8
  %__p.addr = alloca ptr, align 8
  %__old_p = alloca ptr, align 8
  store ptr %this, ptr %this.addr, align 8
  store ptr %__p, ptr %__p.addr, align 8
  %this1 = load ptr, ptr %this.addr, align 8
  %call = call noundef nonnull align 8 dereferenceable(8) ptr @_ZNSt15__uniq_ptr_implI5dh_stN4node15FunctionDeleterIS0_XadL_Z7DH_freeEEEEE6_M_ptrEv(ptr noundef nonnull align 8 dereferenceable(8) %this1) #3
  %0 = load ptr, ptr %call, align 8
  store ptr %0, ptr %__old_p, align 8
  %1 = load ptr, ptr %__p.addr, align 8
  %call2 = call noundef nonnull align 8 dereferenceable(8) ptr @_ZNSt15__uniq_ptr_implI5dh_stN4node15FunctionDeleterIS0_XadL_Z7DH_freeEEEEE6_M_ptrEv(ptr noundef nonnull align 8 dereferenceable(8) %this1) #3
  store ptr %1, ptr %call2, align 8
  %2 = load ptr, ptr %__old_p, align 8
  %tobool = icmp ne ptr %2, null
  br i1 %tobool, label %if.then, label %if.end

if.then:                                          ; preds = %entry
  %call3 = call noundef nonnull align 1 dereferenceable(1) ptr @_ZNSt15__uniq_ptr_implI5dh_stN4node15FunctionDeleterIS0_XadL_Z7DH_freeEEEEE10_M_deleterEv(ptr noundef nonnull align 8 dereferenceable(8) %this1) #3
  %3 = load ptr, ptr %__old_p, align 8
  call void @_ZNK4node15FunctionDeleterI5dh_stXadL_Z7DH_freeEEEclEPS1_(ptr noundef nonnull align 1 dereferenceable(1) %call3, ptr noundef %3)
  br label %if.end

if.end:                                           ; preds = %if.then, %entry
  ret void
}

; Function Attrs: mustprogress nounwind uwtable
define dso_local noundef zeroext i1 @_ZN4node6crypto13DiffieHellman13VerifyContextEv(ptr noundef nonnull align 8 dereferenceable(48) %this) #4 align 2 {
entry:
  %retval = alloca i1, align 1
  %this.addr = alloca ptr, align 8
  %codes = alloca i32, align 4
  store ptr %this, ptr %this.addr, align 8
  %this1 = load ptr, ptr %this.addr, align 8
  %dh_ = getelementptr inbounds %"class.node::crypto::DiffieHellman", ptr %this1, i32 0, i32 2
  %call = call noundef ptr @_ZNKSt10unique_ptrI5dh_stN4node15FunctionDeleterIS0_XadL_Z7DH_freeEEEEE3getEv(ptr noundef nonnull align 8 dereferenceable(8) %dh_) #3
  %call2 = call i32 @DH_check(ptr noundef %call, ptr noundef %codes)
  %tobool = icmp ne i32 %call2, 0
  br i1 %tobool, label %if.end, label %if.then

if.then:                                          ; preds = %entry
  store i1 false, ptr %retval, align 1
  br label %return

if.end:                                           ; preds = %entry
  %0 = load i32, ptr %codes, align 4
  %verifyError_ = getelementptr inbounds %"class.node::crypto::DiffieHellman", ptr %this1, i32 0, i32 1
  store i32 %0, ptr %verifyError_, align 8
  store i1 true, ptr %retval, align 1
  br label %return

return:                                           ; preds = %if.end, %if.then
  %1 = load i1, ptr %retval, align 1
  ret i1 %1
}

; Function Attrs: mustprogress nounwind uwtable
define linkonce_odr dso_local noundef ptr @_ZNKSt10unique_ptrI5dh_stN4node15FunctionDeleterIS0_XadL_Z7DH_freeEEEEE3getEv(ptr noundef nonnull align 8 dereferenceable(8) %this) #4 comdat align 2 {
entry:
  %this.addr = alloca ptr, align 8
  store ptr %this, ptr %this.addr, align 8
  %this1 = load ptr, ptr %this.addr, align 8
  %_M_t = getelementptr inbounds %"class.std::unique_ptr", ptr %this1, i32 0, i32 0
  %call = call noundef ptr @_ZNKSt15__uniq_ptr_implI5dh_stN4node15FunctionDeleterIS0_XadL_Z7DH_freeEEEEE6_M_ptrEv(ptr noundef nonnull align 8 dereferenceable(8) %_M_t) #3
  ret ptr %call
}

; Function Attrs: mustprogress nounwind uwtable
define linkonce_odr dso_local void @_ZNSt10unique_ptrI5dh_stN4node15FunctionDeleterIS0_XadL_Z7DH_freeEEEEE5resetEPS0_(ptr noundef nonnull align 8 dereferenceable(8) %this, ptr noundef %__p) #4 comdat align 2 {
entry:
  %this.addr = alloca ptr, align 8
  %__p.addr = alloca ptr, align 8
  store ptr %this, ptr %this.addr, align 8
  store ptr %__p, ptr %__p.addr, align 8
  %this1 = load ptr, ptr %this.addr, align 8
  %_M_t = getelementptr inbounds %"class.std::unique_ptr", ptr %this1, i32 0, i32 0
  %0 = load ptr, ptr %__p.addr, align 8
  call void @_ZNSt15__uniq_ptr_implI5dh_stN4node15FunctionDeleterIS0_XadL_Z7DH_freeEEEEE5resetEPS0_(ptr noundef nonnull align 8 dereferenceable(8) %_M_t, ptr noundef %0) #3
  ret void
}

; Function Attrs: mustprogress nounwind uwtable
define dso_local noundef zeroext i1 @_ZN4node6crypto13DiffieHellman4InitEPKciS3_i(ptr noundef nonnull align 8 dereferenceable(48) %this, ptr noundef %p, i32 noundef %p_len, ptr noundef %g, i32 noundef %g_len) #4 align 2 {
entry:
  %retval = alloca i1, align 1
  %this.addr = alloca ptr, align 8
  %p.addr = alloca ptr, align 8
  %p_len.addr = alloca i32, align 4
  %g.addr = alloca ptr, align 8
  %g_len.addr = alloca i32, align 4
  %bn_g = alloca ptr, align 8
  %bn_p = alloca ptr, align 8
  store ptr %this, ptr %this.addr, align 8
  store ptr %p, ptr %p.addr, align 8
  store i32 %p_len, ptr %p_len.addr, align 4
  store ptr %g, ptr %g.addr, align 8
  store i32 %g_len, ptr %g_len.addr, align 4
  %this1 = load ptr, ptr %this.addr, align 8
  %dh_ = getelementptr inbounds %"class.node::crypto::DiffieHellman", ptr %this1, i32 0, i32 2
  %call = call ptr @DH_new()
  call void @_ZNSt10unique_ptrI5dh_stN4node15FunctionDeleterIS0_XadL_Z7DH_freeEEEEE5resetEPS0_(ptr noundef nonnull align 8 dereferenceable(8) %dh_, ptr noundef %call) #3
  %0 = load i32, ptr %p_len.addr, align 4
  %cmp = icmp sle i32 %0, 0
  br i1 %cmp, label %if.then, label %if.end

if.then:                                          ; preds = %entry
  call void @ERR_new()
  call void @ERR_set_debug(ptr noundef @.str.7, i32 noundef 181, ptr noundef @.str.8)
  call void (i32, i32, ptr, ...) @ERR_set_error(i32 noundef 3, i32 noundef 118, ptr noundef null)
  store i1 false, ptr %retval, align 1
  br label %return

if.end:                                           ; preds = %entry
  %1 = load i32, ptr %g_len.addr, align 4
  %cmp2 = icmp sle i32 %1, 0
  br i1 %cmp2, label %if.then3, label %if.end4

if.then3:                                         ; preds = %if.end
  call void @ERR_new()
  call void @ERR_set_debug(ptr noundef @.str.7, i32 noundef 186, ptr noundef @.str.8)
  call void (i32, i32, ptr, ...) @ERR_set_error(i32 noundef 5, i32 noundef 101, ptr noundef null)
  store i1 false, ptr %retval, align 1
  br label %return

if.end4:                                          ; preds = %if.end
  %2 = load ptr, ptr %g.addr, align 8
  %3 = load i32, ptr %g_len.addr, align 4
  %call5 = call ptr @BN_bin2bn(ptr noundef %2, i32 noundef %3, ptr noundef null)
  store ptr %call5, ptr %bn_g, align 8
  %4 = load ptr, ptr %bn_g, align 8
  %call6 = call i32 @BN_is_zero(ptr noundef %4)
  %tobool = icmp ne i32 %call6, 0
  br i1 %tobool, label %if.then9, label %lor.lhs.false

lor.lhs.false:                                    ; preds = %if.end4
  %5 = load ptr, ptr %bn_g, align 8
  %call7 = call i32 @BN_is_one(ptr noundef %5)
  %tobool8 = icmp ne i32 %call7, 0
  br i1 %tobool8, label %if.then9, label %if.end10

if.then9:                                         ; preds = %lor.lhs.false, %if.end4
  %6 = load ptr, ptr %bn_g, align 8
  call void @BN_free(ptr noundef %6)
  call void @ERR_new()
  call void @ERR_set_debug(ptr noundef @.str.7, i32 noundef 194, ptr noundef @.str.8)
  call void (i32, i32, ptr, ...) @ERR_set_error(i32 noundef 5, i32 noundef 101, ptr noundef null)
  store i1 false, ptr %retval, align 1
  br label %return

if.end10:                                         ; preds = %lor.lhs.false
  %7 = load ptr, ptr %p.addr, align 8
  %8 = load i32, ptr %p_len.addr, align 4
  %call11 = call ptr @BN_bin2bn(ptr noundef %7, i32 noundef %8, ptr noundef null)
  store ptr %call11, ptr %bn_p, align 8
  %dh_12 = getelementptr inbounds %"class.node::crypto::DiffieHellman", ptr %this1, i32 0, i32 2
  %call13 = call noundef ptr @_ZNKSt10unique_ptrI5dh_stN4node15FunctionDeleterIS0_XadL_Z7DH_freeEEEEE3getEv(ptr noundef nonnull align 8 dereferenceable(8) %dh_12) #3
  %9 = load ptr, ptr %bn_p, align 8
  %10 = load ptr, ptr %bn_g, align 8
  %call14 = call i32 @DH_set0_pqg(ptr noundef %call13, ptr noundef %9, ptr noundef null, ptr noundef %10)
  %tobool15 = icmp ne i32 %call14, 0
  br i1 %tobool15, label %if.end17, label %if.then16

if.then16:                                        ; preds = %if.end10
  %11 = load ptr, ptr %bn_p, align 8
  call void @BN_free(ptr noundef %11)
  %12 = load ptr, ptr %bn_g, align 8
  call void @BN_free(ptr noundef %12)
  store i1 false, ptr %retval, align 1
  br label %return

if.end17:                                         ; preds = %if.end10
  %call18 = call noundef zeroext i1 @_ZN4node6crypto13DiffieHellman13VerifyContextEv(ptr noundef nonnull align 8 dereferenceable(48) %this1)
  store i1 %call18, ptr %retval, align 1
  br label %return

return:                                           ; preds = %if.end17, %if.then16, %if.then9, %if.then3, %if.then
  %13 = load i1, ptr %retval, align 1
  ret i1 %13
}