; Function Attrs: mustprogress nounwind uwtable
define dso_local noundef zeroext i1 @_ZN4node6crypto13DiffieHellman4InitEPKciS3_i(ptr nocapture noundef nonnull align 8 dereferenceable(48) %this, ptr noundef %p, i32 noundef %p_len, ptr noundef %g, i32 noundef %g_len) local_unnamed_addr #3 align 2 {
entry:
  %codes.i = alloca i32, align 4
  %dh_ = getelementptr inbounds i8, ptr %this, i64 40
  %call = tail call ptr @DH_new() #18
  %0 = load ptr, ptr %dh_, align 8
  store ptr %call, ptr %dh_, align 8
  %tobool.not.i.i = icmp eq ptr %0, null
  br i1 %tobool.not.i.i, label %_ZNSt10unique_ptrI5dh_stN4node15FunctionDeleterIS0_XadL_Z7DH_freeEEEEE5resetEPS0_.exit, label %if.then.i.i

if.then.i.i:                                      ; preds = %entry
  tail call void @DH_free(ptr noundef nonnull %0) #18
  br label %_ZNSt10unique_ptrI5dh_stN4node15FunctionDeleterIS0_XadL_Z7DH_freeEEEEE5resetEPS0_.exit

_ZNSt10unique_ptrI5dh_stN4node15FunctionDeleterIS0_XadL_Z7DH_freeEEEEE5resetEPS0_.exit: ; preds = %entry, %if.then.i.i
  %cmp = icmp slt i32 %p_len, 1
  br i1 %cmp, label %if.then, label %if.end

if.then:                                          ; preds = %_ZNSt10unique_ptrI5dh_stN4node15FunctionDeleterIS0_XadL_Z7DH_freeEEEEE5resetEPS0_.exit
  tail call void @ERR_new() #18
  tail call void @ERR_set_debug(ptr noundef nonnull @.str.7, i32 noundef 181, ptr noundef nonnull @.str.8) #18
  tail call void (i32, i32, ptr, ...) @ERR_set_error(i32 noundef 3, i32 noundef 118, ptr noundef null) #18
  br label %return

if.end:                                           ; preds = %_ZNSt10unique_ptrI5dh_stN4node15FunctionDeleterIS0_XadL_Z7DH_freeEEEEE5resetEPS0_.exit
  %cmp2 = icmp slt i32 %g_len, 1
  br i1 %cmp2, label %if.then3, label %if.end4

if.then3:                                         ; preds = %if.end
  tail call void @ERR_new() #18
  tail call void @ERR_set_debug(ptr noundef nonnull @.str.7, i32 noundef 186, ptr noundef nonnull @.str.8) #18
  tail call void (i32, i32, ptr, ...) @ERR_set_error(i32 noundef 5, i32 noundef 101, ptr noundef null) #18
  br label %return

if.end4:                                          ; preds = %if.end
  %call5 = tail call ptr @BN_bin2bn(ptr noundef %g, i32 noundef %g_len, ptr noundef null) #18
  %call6 = tail call i32 @BN_is_zero(ptr noundef %call5) #18
  %tobool.not = icmp eq i32 %call6, 0
  br i1 %tobool.not, label %lor.lhs.false, label %if.then9

lor.lhs.false:                                    ; preds = %if.end4
  %call7 = tail call i32 @BN_is_one(ptr noundef %call5) #18
  %tobool8.not = icmp eq i32 %call7, 0
  br i1 %tobool8.not, label %if.end10, label %if.then9

if.then9:                                         ; preds = %lor.lhs.false, %if.end4
  tail call void @BN_free(ptr noundef %call5) #18
  tail call void @ERR_new() #18
  tail call void @ERR_set_debug(ptr noundef nonnull @.str.7, i32 noundef 194, ptr noundef nonnull @.str.8) #18
  tail call void (i32, i32, ptr, ...) @ERR_set_error(i32 noundef 5, i32 noundef 101, ptr noundef null) #18
  br label %return

if.end10:                                         ; preds = %lor.lhs.false
  %call11 = tail call ptr @BN_bin2bn(ptr noundef %p, i32 noundef %p_len, ptr noundef null) #18
  %1 = load ptr, ptr %dh_, align 8
  %call14 = tail call i32 @DH_set0_pqg(ptr noundef %1, ptr noundef %call11, ptr noundef null, ptr noundef %call5) #18
  %tobool15.not = icmp eq i32 %call14, 0
  br i1 %tobool15.not, label %if.then16, label %if.end17

if.then16:                                        ; preds = %if.end10
  tail call void @BN_free(ptr noundef %call11) #18
  tail call void @BN_free(ptr noundef %call5) #18
  br label %return

if.end17:                                         ; preds = %if.end10
  call void @llvm.lifetime.start.p0(i64 4, ptr nonnull %codes.i)
  %2 = load ptr, ptr %dh_, align 8
  %call2.i = call i32 @DH_check(ptr noundef %2, ptr noundef nonnull %codes.i) #18
  %tobool.not.i = icmp ne i32 %call2.i, 0
  br i1 %tobool.not.i, label %if.end.i, label %_ZN4node6crypto13DiffieHellman13VerifyContextEv.exit

if.end.i:                                         ; preds = %if.end17
  %3 = load i32, ptr %codes.i, align 4
  %verifyError_.i = getelementptr inbounds i8, ptr %this, i64 32
  store i32 %3, ptr %verifyError_.i, align 8
  br label %_ZN4node6crypto13DiffieHellman13VerifyContextEv.exit

_ZN4node6crypto13DiffieHellman13VerifyContextEv.exit: ; preds = %if.end17, %if.end.i
  call void @llvm.lifetime.end.p0(i64 4, ptr nonnull %codes.i)
  br label %return

return:                                           ; preds = %_ZN4node6crypto13DiffieHellman13VerifyContextEv.exit, %if.then16, %if.then9, %if.then3, %if.then
  %retval.0 = phi i1 [ false, %if.then ], [ false, %if.then3 ], [ false, %if.then9 ], [ %tobool.not.i, %_ZN4node6crypto13DiffieHellman13VerifyContextEv.exit ], [ false, %if.then16 ]
  ret i1 %retval.0
}